(lp0
(lp1
VDisappointed by the service.faulty battery charger
p2
aV1.0 
p3
acnumpy.core.multiarray
scalar
p4
(cnumpy
dtype
p5
(S'i8'
p6
I0
I1
tp7
Rp8
(I3
S'<'
p9
NNNI-1
I-1
I0
tp10
bS'\x01\x00\x00\x00\x00\x00\x00\x00'
p11
tp12
Rp13
aa(lp14
VI got this one during Diwali Sale for 26.5K Rs, it was a steal deal :)Though I have just started learning photography and handling DSLR, this camera is fantastic. Anyone looking for D5300 but having tight budget can definitely go for this!Got Camera, kit lense18-55mm, battery charger, 8GB san disk card, Nikon camera bag along with warranty cards.Registered the Camera and lens for warranty on NIKON India site.Adding some snaps taken with this Camera :)Happy Clicking!
p15
aV4.0 
p16
ag4
(g8
S'\x01\x00\x00\x00\x00\x00\x00\x00'
p17
tp18
Rp19
aa.